target datalayout = "e-m:e-p270:32:32-p271:32:32-p272:64:64-i64:64-i128:128-f80:128-n8:16:32:64-S128"
target triple = "x86_64-pc-linux-gnu"

%"class.std::__cxx11::basic_string" = type { %"struct.std::__cxx11::basic_string<char>::_Alloc_hider", i64, %union.anon }
%"struct.std::__cxx11::basic_string<char>::_Alloc_hider" = type { ptr }
%union.anon = type { i64, [8 x i8] }
%"class.rocksdb::Slice" = type { ptr, i64 }
%"struct.rocksdb::BlockCacheTraceRecord" = type <{ i64, %"class.std::__cxx11::basic_string", i8, [7 x i8], i64, i64, %"class.std::__cxx11::basic_string", i32, [4 x i8], i64, i8, i8, i8, [5 x i8], i64, i8, [7 x i8], %"class.std::__cxx11::basic_string", i64, i64, i8, [7 x i8] }>

; Function Attrs: noinline noreturn nounwind uwtable
define linkonce_odr hidden void @__clang_call_terminate(ptr noundef %0) #11 comdat {
  %2 = call ptr @__cxa_begin_catch(ptr %0) #5
  call void @_ZSt9terminatev() #22
  unreachable
}

; Function Attrs: mustprogress nounwind uwtable
define available_externally noundef ptr @_ZNKSt7__cxx1112basic_stringIcSt11char_traitsIcESaIcEE7_M_dataEv(ptr noundef nonnull align 8 dereferenceable(32) %0) #3 align 2 {
  %2 = alloca ptr, align 8
  store ptr %0, ptr %2, align 8, !tbaa !18
  %3 = load ptr, ptr %2, align 8
  %4 = getelementptr inbounds nuw %"class.std::__cxx11::basic_string", ptr %3, i32 0, i32 0
  %5 = getelementptr inbounds nuw %"struct.std::__cxx11::basic_string<char>::_Alloc_hider", ptr %4, i32 0, i32 0
  %6 = load ptr, ptr %5, align 8, !tbaa !271
  ret ptr %6
}

; Function Attrs: mustprogress nounwind uwtable
define available_externally noundef i64 @_ZNKSt7__cxx1112basic_stringIcSt11char_traitsIcESaIcEE4sizeEv(ptr noundef nonnull align 8 dereferenceable(32) %0) #3 align 2 {
  %2 = alloca ptr, align 8
  store ptr %0, ptr %2, align 8, !tbaa !18
  %3 = load ptr, ptr %2, align 8
  %4 = getelementptr inbounds nuw %"class.std::__cxx11::basic_string", ptr %3, i32 0, i32 1
  %5 = load i64, ptr %4, align 8, !tbaa !184
  ret i64 %5
}

; Function Attrs: mustprogress nounwind uwtable
define available_externally noundef ptr @_ZNKSt7__cxx1112basic_stringIcSt11char_traitsIcESaIcEE4dataEv(ptr noundef nonnull align 8 dereferenceable(32) %0) #3 align 2 personality ptr @__gxx_personality_v0 {
  %2 = alloca ptr, align 8
  store ptr %0, ptr %2, align 8, !tbaa !18
  %3 = load ptr, ptr %2, align 8
  %4 = invoke noundef ptr @_ZNKSt7__cxx1112basic_stringIcSt11char_traitsIcESaIcEE7_M_dataEv(ptr noundef nonnull align 8 dereferenceable(32) %3)
          to label %5 unwind label %6

5:                                                ; preds = %1
  ret ptr %4

6:                                                ; preds = %1
  %7 = landingpad { ptr, i32 }
          catch ptr null
  %8 = extractvalue { ptr, i32 } %7, 0
  call void @__clang_call_terminate(ptr %8) #22
  unreachable
}

; Function Attrs: mustprogress nounwind uwtable
define noundef i32 @_ZNK7rocksdb25PrioritizedCacheSimulator20ComputeBlockPriorityERKNS_21BlockCacheTraceRecordE(ptr noundef nonnull align 8 dereferenceable(160) %0, ptr noundef nonnull align 8 dereferenceable(185) %1) #3 align 2 {
  %3 = alloca i32, align 4
  %4 = alloca ptr, align 8
  %5 = alloca ptr, align 8
  store ptr %0, ptr %4, align 8, !tbaa !80
  store ptr %1, ptr %5, align 8, !tbaa !54
  %6 = load ptr, ptr %5, align 8, !tbaa !54
  %7 = getelementptr inbounds nuw %"struct.rocksdb::BlockCacheTraceRecord", ptr %6, i32 0, i32 2
  %8 = load i8, ptr %7, align 8, !tbaa !82
  %9 = sext i8 %8 to i32
  %10 = icmp eq i32 %9, 8
  br i1 %10, label %23, label %11

11:                                               ; preds = %2
  %12 = load ptr, ptr %5, align 8, !tbaa !54
  %13 = getelementptr inbounds nuw %"struct.rocksdb::BlockCacheTraceRecord", ptr %12, i32 0, i32 2
  %14 = load i8, ptr %13, align 8, !tbaa !82
  %15 = sext i8 %14 to i32
  %16 = icmp eq i32 %15, 7
  br i1 %16, label %23, label %17

17:                                               ; preds = %11
  %18 = load ptr, ptr %5, align 8, !tbaa !54
  %19 = getelementptr inbounds nuw %"struct.rocksdb::BlockCacheTraceRecord", ptr %18, i32 0, i32 2
  %20 = load i8, ptr %19, align 8, !tbaa !82
  %21 = sext i8 %20 to i32
  %22 = icmp eq i32 %21, 10
  br i1 %22, label %23, label %24

23:                                               ; preds = %17, %11, %2
  store i32 0, ptr %3, align 4
  br label %25

24:                                               ; preds = %17
  store i32 1, ptr %3, align 4
  br label %25

25:                                               ; preds = %24, %23
  %26 = load i32, ptr %3, align 4
  ret i32 %26
}

; Function Attrs: mustprogress nounwind uwtable
define linkonce_odr void @_ZN7rocksdb5SliceC2ERKNSt7__cxx1112basic_stringIcSt11char_traitsIcESaIcEEE(ptr noundef nonnull align 8 dereferenceable(16) %0, ptr noundef nonnull align 8 dereferenceable(32) %1) unnamed_addr #3 comdat align 2 {
  %3 = alloca ptr, align 8
  %4 = alloca ptr, align 8
  store ptr %0, ptr %3, align 8, !tbaa !10
  store ptr %1, ptr %4, align 8, !tbaa !18
  %5 = load ptr, ptr %3, align 8
  %6 = getelementptr inbounds nuw %"class.rocksdb::Slice", ptr %5, i32 0, i32 0
  %7 = load ptr, ptr %4, align 8, !tbaa !18
  %8 = call noundef ptr @_ZNKSt7__cxx1112basic_stringIcSt11char_traitsIcESaIcEE4dataEv(ptr noundef nonnull align 8 dereferenceable(32) %7) #5
  store ptr %8, ptr %6, align 8, !tbaa !31
  %9 = getelementptr inbounds nuw %"class.rocksdb::Slice", ptr %5, i32 0, i32 1
  %10 = load ptr, ptr %4, align 8, !tbaa !18
  %11 = call noundef i64 @_ZNKSt7__cxx1112basic_stringIcSt11char_traitsIcESaIcEE4sizeEv(ptr noundef nonnull align 8 dereferenceable(32) %10) #5
  store i64 %11, ptr %9, align 8, !tbaa !13
  ret void
}

; Function Attrs: mustprogress uwtable
define void @_ZN7rocksdb25PrioritizedCacheSimulator6AccessERKNS_21BlockCacheTraceRecordE(ptr noundef nonnull align 8 dereferenceable(160) %0, ptr noundef nonnull align 8 dereferenceable(185) %1) unnamed_addr #4 align 2 {
  %3 = alloca ptr, align 8
  %4 = alloca ptr, align 8
  %5 = alloca i8, align 1
  %6 = alloca i8, align 1
  %7 = alloca %"class.rocksdb::Slice", align 8
  store ptr %0, ptr %3, align 8, !tbaa !80
  store ptr %1, ptr %4, align 8, !tbaa !54
  %8 = load ptr, ptr %3, align 8
  call void @llvm.lifetime.start.p0(i64 1, ptr %5) #5
  store i8 1, ptr %5, align 1, !tbaa !56
  call void @llvm.lifetime.start.p0(i64 1, ptr %6) #5
  store i8 1, ptr %6, align 1, !tbaa !56
  call void @llvm.lifetime.start.p0(i64 16, ptr %7) #5
  %9 = load ptr, ptr %4, align 8, !tbaa !54
  %10 = getelementptr inbounds nuw %"struct.rocksdb::BlockCacheTraceRecord", ptr %9, i32 0, i32 1
  call void @_ZN7rocksdb5SliceC2ERKNSt7__cxx1112basic_stringIcSt11char_traitsIcESaIcEEE(ptr noundef nonnull align 8 dereferenceable(16) %7, ptr noundef nonnull align 8 dereferenceable(32) %10)
  %11 = load ptr, ptr %4, align 8, !tbaa !54
  %12 = getelementptr inbounds nuw %"struct.rocksdb::BlockCacheTraceRecord", ptr %11, i32 0, i32 4
  %13 = load i64, ptr %12, align 8, !tbaa !68
  %14 = load ptr, ptr %4, align 8, !tbaa !54
  %15 = call noundef i32 @_ZNK7rocksdb25PrioritizedCacheSimulator20ComputeBlockPriorityERKNS_21BlockCacheTraceRecordE(ptr noundef nonnull align 8 dereferenceable(160) %8, ptr noundef nonnull align 8 dereferenceable(185) %14)
  %16 = load ptr, ptr %4, align 8, !tbaa !54
  %17 = load ptr, ptr %4, align 8, !tbaa !54
  %18 = getelementptr inbounds nuw %"struct.rocksdb::BlockCacheTraceRecord", ptr %17, i32 0, i32 12
  %19 = load i8, ptr %18, align 2, !tbaa !65, !range !66, !noundef !67
  %20 = trunc i8 %19 to i1
  %21 = load ptr, ptr %4, align 8, !tbaa !54
  %22 = getelementptr inbounds nuw %"struct.rocksdb::BlockCacheTraceRecord", ptr %21, i32 0, i32 10
  %23 = load i8, ptr %22, align 8, !tbaa !58
  %24 = call noundef zeroext i1 @_ZN7rocksdb21BlockCacheTraceHelper12IsUserAccessENS_17TableReaderCallerE(i8 noundef signext %23)
  call void @_ZN7rocksdb25PrioritizedCacheSimulator12AccessKVPairERKNS_5SliceEmNS_5Cache8PriorityERKNS_21BlockCacheTraceRecordEbbPbS9_b(ptr noundef nonnull align 8 dereferenceable(160) %8, ptr noundef nonnull align 8 dereferenceable(16) %7, i64 noundef %13, i32 noundef %15, ptr noundef nonnull align 8 dereferenceable(185) %16, i1 noundef zeroext %20, i1 noundef zeroext %24, ptr noundef %5, ptr noundef %6, i1 noundef zeroext true)
  call void @llvm.lifetime.end.p0(i64 16, ptr %7) #5
  call void @llvm.lifetime.end.p0(i64 1, ptr %6) #5
  call void @llvm.lifetime.end.p0(i64 1, ptr %5) #5
  ret void
}