; Function Attrs: mustprogress uwtable
define void @_ZN7rocksdb25PrioritizedCacheSimulator6AccessERKNS_21BlockCacheTraceRecordE(ptr noundef nonnull align 8 dereferenceable(160) %0, ptr noundef nonnull readonly align 8 captures(none) dereferenceable(185) %1) unnamed_addr #4 align 2 personality ptr @__gxx_personality_v0 {
  %3 = alloca i8, align 1
  %4 = alloca i8, align 1
  %5 = alloca %"class.rocksdb::Slice", align 8
  call void @llvm.lifetime.start.p0(i64 1, ptr nonnull %3) #25
  call void @llvm.lifetime.start.p0(i64 1, ptr nonnull %4) #25
  call void @llvm.lifetime.start.p0(i64 16, ptr nonnull %5) #25
  %6 = getelementptr inbounds nuw i8, ptr %1, i64 8
  %7 = load ptr, ptr %6, align 8, !tbaa !45
  store ptr %7, ptr %5, align 8, !tbaa !22
  %8 = getelementptr inbounds nuw i8, ptr %5, i64 8
  %9 = getelementptr inbounds nuw i8, ptr %1, i64 16
  %10 = load i64, ptr %9, align 8, !tbaa !46
  store i64 %10, ptr %8, align 8, !tbaa !18
  %11 = getelementptr inbounds nuw i8, ptr %1, i64 48
  %12 = load i64, ptr %11, align 8, !tbaa !47
  %13 = getelementptr inbounds nuw i8, ptr %1, i64 40
  %14 = load i8, ptr %13, align 8, !tbaa !65
  %switch.tableidx = add i8 %14, -7
  %15 = icmp ult i8 %switch.tableidx, 4
  br i1 %15, label %switch.lookup, label %_ZNK7rocksdb25PrioritizedCacheSimulator20ComputeBlockPriorityERKNS_21BlockCacheTraceRecordE.exit

switch.lookup:                                    ; preds = %2
  %16 = zext nneg i8 %switch.tableidx to i64
  %switch.gep = getelementptr inbounds nuw [4 x i32], ptr @switch.table._ZN7rocksdb28HybridRowBlockCacheSimulator6AccessERKNS_21BlockCacheTraceRecordE.1, i64 0, i64 %16
  %switch.load = load i32, ptr %switch.gep, align 4
  br label %_ZNK7rocksdb25PrioritizedCacheSimulator20ComputeBlockPriorityERKNS_21BlockCacheTraceRecordE.exit

_ZNK7rocksdb25PrioritizedCacheSimulator20ComputeBlockPriorityERKNS_21BlockCacheTraceRecordE.exit: ; preds = %2, %switch.lookup
  %.0.i = phi i32 [ %switch.load, %switch.lookup ], [ 1, %2 ]
  %17 = getelementptr inbounds nuw i8, ptr %1, i64 114
  %18 = load i8, ptr %17, align 2, !tbaa !42, !range !43, !noundef !44
  %19 = trunc nuw i8 %18 to i1
  %20 = getelementptr inbounds nuw i8, ptr %1, i64 112
  %21 = load i8, ptr %20, align 8, !tbaa !35
  %22 = tail call noundef zeroext i1 @_ZN7rocksdb21BlockCacheTraceHelper12IsUserAccessENS_17TableReaderCallerE(i8 noundef signext %21)
  call void @_ZN7rocksdb25PrioritizedCacheSimulator12AccessKVPairERKNS_5SliceEmNS_5Cache8PriorityERKNS_21BlockCacheTraceRecordEbbPbS9_b(ptr noundef nonnull align 8 dereferenceable(160) %0, ptr noundef nonnull align 8 dereferenceable(16) %5, i64 noundef %12, i32 noundef %.0.i, ptr noundef nonnull align 8 dereferenceable(185) %1, i1 noundef zeroext %19, i1 noundef zeroext %22, ptr noundef nonnull %3, ptr noundef nonnull %4, i1 noundef zeroext true)
  call void @llvm.lifetime.end.p0(i64 16, ptr nonnull %5) #25
  call void @llvm.lifetime.end.p0(i64 1, ptr nonnull %4) #25
  call void @llvm.lifetime.end.p0(i64 1, ptr nonnull %3) #25
  ret void
}